; ModuleID = 'source-C-CXX/51/572.cpp'
source_filename = "source-C-CXX/51/572.cpp"
target datalayout = "e-m:e-p270:32:32-p271:32:32-p272:64:64-i64:64-f80:128-n8:16:32:64-S128"
target triple = "x86_64-pc-linux-gnu"

%"class.std::ios_base::Init" = type { i8 }
%"class.std::basic_istream" = type { i32 (...)**, i64, %"class.std::basic_ios" }
%"class.std::basic_ios" = type { %"class.std::ios_base", %"class.std::basic_ostream"*, i8, i8, %"class.std::basic_streambuf"*, %"class.std::ctype"*, %"class.std::num_put"*, %"class.std::num_get"* }
%"class.std::ios_base" = type { i32 (...)**, i64, i64, i32, i32, i32, %"struct.std::ios_base::_Callback_list"*, %"struct.std::ios_base::_Words", [8 x %"struct.std::ios_base::_Words"], i32, %"struct.std::ios_base::_Words"*, %"class.std::locale" }
%"struct.std::ios_base::_Callback_list" = type { %"struct.std::ios_base::_Callback_list"*, void (i32, %"class.std::ios_base"*, i32)*, i32, i32 }
%"struct.std::ios_base::_Words" = type { i8*, i64 }
%"class.std::locale" = type { %"class.std::locale::_Impl"* }
%"class.std::locale::_Impl" = type { i32, %"class.std::locale::facet"**, i64, %"class.std::locale::facet"**, i8** }
%"class.std::locale::facet" = type <{ i32 (...)**, i32, [4 x i8] }>
%"class.std::basic_ostream" = type { i32 (...)**, %"class.std::basic_ios" }
%"class.std::basic_streambuf" = type { i32 (...)**, i8*, i8*, i8*, i8*, i8*, i8*, %"class.std::locale" }
%"class.std::ctype" = type <{ %"class.std::locale::facet.base", [4 x i8], %struct.__locale_struct*, i8, [7 x i8], i32*, i32*, i16*, i8, [256 x i8], [256 x i8], i8, [6 x i8] }>
%"class.std::locale::facet.base" = type <{ i32 (...)**, i32 }>
%struct.__locale_struct = type { [13 x %struct.__locale_data*], i16*, i32*, i32*, [13 x i8*] }
%struct.__locale_data = type opaque
%"class.std::num_put" = type { %"class.std::locale::facet.base", [4 x i8] }
%"class.std::num_get" = type { %"class.std::locale::facet.base", [4 x i8] }

@_ZStL8__ioinit = internal global %"class.std::ios_base::Init" zeroinitializer, align 1
@__dso_handle = external hidden global i8
@_ZSt3cin = external global %"class.std::basic_istream", align 8
@_ZSt4cout = external global %"class.std::basic_ostream", align 8
@.str = private unnamed_addr constant [2 x i8] c" \00", align 1
@llvm.global_ctors = appending global [1 x { i32, void ()*, i8* }] [{ i32, void ()*, i8* } { i32 65535, void ()* @_GLOBAL__sub_I_572.cpp, i8* null }]

declare void @_ZNSt8ios_base4InitC1Ev(%"class.std::ios_base::Init"* nonnull align 1 dereferenceable(1)) unnamed_addr #0

; Function Attrs: nounwind
declare void @_ZNSt8ios_base4InitD1Ev(%"class.std::ios_base::Init"* nonnull align 1 dereferenceable(1)) unnamed_addr #1

; Function Attrs: nofree nounwind
declare i32 @__cxa_atexit(void (i8*)*, i8*, i8*) local_unnamed_addr #2

; Function Attrs: mustprogress norecurse sspstrong uwtable
define dso_local i32 @main() local_unnamed_addr #3 {
  %1 = alloca [100 x i32], align 16
  %2 = bitcast [100 x i32]* %1 to i8*
  %3 = alloca i32, align 4
  %4 = alloca i32, align 4
  %5 = alloca [100 x i32], align 16
  call void @llvm.lifetime.start.p0i8(i64 400, i8* nonnull %2) #9
  %6 = bitcast i32* %3 to i8*
  call void @llvm.lifetime.start.p0i8(i64 4, i8* nonnull %6) #9
  %7 = bitcast i32* %4 to i8*
  call void @llvm.lifetime.start.p0i8(i64 4, i8* nonnull %7) #9
  %8 = bitcast [100 x i32]* %5 to i8*
  call void @llvm.lifetime.start.p0i8(i64 400, i8* nonnull %8) #9
  %9 = call nonnull align 8 dereferenceable(16) %"class.std::basic_istream"* @_ZNSirsERi(%"class.std::basic_istream"* nonnull align 8 dereferenceable(16) @_ZSt3cin, i32* nonnull align 4 dereferenceable(4) %3)
  %10 = call nonnull align 8 dereferenceable(16) %"class.std::basic_istream"* @_ZNSirsERi(%"class.std::basic_istream"* nonnull align 8 dereferenceable(16) %9, i32* nonnull align 4 dereferenceable(4) %4)
  %11 = load i32, i32* %3, align 4, !tbaa !5
  %12 = icmp sgt i32 %11, 0
  br i1 %12, label %27, label %13

13:                                               ; preds = %27, %0
  %14 = phi i32 [ %11, %0 ], [ %32, %27 ]
  %15 = load i32, i32* %4, align 4, !tbaa !5
  %16 = sub i32 %14, %15
  %17 = icmp sgt i32 %16, 0
  br i1 %17, label %18, label %35

18:                                               ; preds = %13
  %19 = sext i32 %15 to i64
  %20 = getelementptr [100 x i32], [100 x i32]* %5, i64 0, i64 %19
  %21 = bitcast i32* %20 to i8*
  %22 = xor i32 %15, -1
  %23 = add i32 %14, %22
  %24 = zext i32 %23 to i64
  %25 = shl nuw nsw i64 %24, 2
  %26 = add nuw nsw i64 %25, 4
  call void @llvm.memcpy.p0i8.p0i8.i64(i8* noundef nonnull align 4 dereferenceable(1) %21, i8* noundef nonnull align 16 %2, i64 %26, i1 false)
  br label %35

27:                                               ; preds = %0, %27
  %28 = phi i64 [ %31, %27 ], [ 0, %0 ]
  %29 = getelementptr inbounds [100 x i32], [100 x i32]* %1, i64 0, i64 %28
  %30 = call nonnull align 8 dereferenceable(16) %"class.std::basic_istream"* @_ZNSirsERi(%"class.std::basic_istream"* nonnull align 8 dereferenceable(16) @_ZSt3cin, i32* nonnull align 4 dereferenceable(4) %29)
  %31 = add nuw nsw i64 %28, 1
  %32 = load i32, i32* %3, align 4, !tbaa !5
  %33 = sext i32 %32 to i64
  %34 = icmp slt i64 %31, %33
  br i1 %34, label %27, label %13, !llvm.loop !9

35:                                               ; preds = %18, %13
  %36 = sub i32 %15, %14
  %37 = icmp sgt i32 %15, 0
  br i1 %37, label %38, label %115

38:                                               ; preds = %35
  %39 = sext i32 %16 to i64
  %40 = sext i32 %14 to i64
  %41 = add nsw i64 %39, 1
  %42 = call i64 @llvm.smax.i64(i64 %41, i64 %40)
  %43 = sub i64 %42, %39
  %44 = icmp ult i64 %43, 8
  br i1 %44, label %113, label %45

45:                                               ; preds = %38
  %46 = add nsw i64 %39, 1
  %47 = call i64 @llvm.smax.i64(i64 %46, i64 %40)
  %48 = xor i64 %39, -1
  %49 = add i64 %47, %48
  %50 = icmp ugt i64 %49, 2147483647
  br i1 %50, label %113, label %51

51:                                               ; preds = %45
  %52 = and i64 %43, -8
  %53 = add i64 %52, %39
  %54 = add i64 %52, -8
  %55 = lshr exact i64 %54, 3
  %56 = add nuw nsw i64 %55, 1
  %57 = and i64 %56, 1
  %58 = icmp eq i64 %54, 0
  br i1 %58, label %94, label %59

59:                                               ; preds = %51
  %60 = and i64 %56, 4611686018427387902
  br label %61

61:                                               ; preds = %61, %59
  %62 = phi i64 [ 0, %59 ], [ %91, %61 ]
  %63 = phi i64 [ %60, %59 ], [ %92, %61 ]
  %64 = add i64 %62, %39
  %65 = getelementptr inbounds [100 x i32], [100 x i32]* %1, i64 0, i64 %64
  %66 = bitcast i32* %65 to <4 x i32>*
  %67 = load <4 x i32>, <4 x i32>* %66, align 4, !tbaa !5
  %68 = getelementptr inbounds i32, i32* %65, i64 4
  %69 = bitcast i32* %68 to <4 x i32>*
  %70 = load <4 x i32>, <4 x i32>* %69, align 4, !tbaa !5
  %71 = shl i64 %62, 32
  %72 = ashr exact i64 %71, 32
  %73 = getelementptr inbounds [100 x i32], [100 x i32]* %5, i64 0, i64 %72
  %74 = bitcast i32* %73 to <4 x i32>*
  store <4 x i32> %67, <4 x i32>* %74, align 16, !tbaa !5
  %75 = getelementptr inbounds i32, i32* %73, i64 4
  %76 = bitcast i32* %75 to <4 x i32>*
  store <4 x i32> %70, <4 x i32>* %76, align 16, !tbaa !5
  %77 = or i64 %62, 8
  %78 = add i64 %77, %39
  %79 = getelementptr inbounds [100 x i32], [100 x i32]* %1, i64 0, i64 %78
  %80 = bitcast i32* %79 to <4 x i32>*
  %81 = load <4 x i32>, <4 x i32>* %80, align 4, !tbaa !5
  %82 = getelementptr inbounds i32, i32* %79, i64 4
  %83 = bitcast i32* %82 to <4 x i32>*
  %84 = load <4 x i32>, <4 x i32>* %83, align 4, !tbaa !5
  %85 = shl i64 %77, 32
  %86 = ashr exact i64 %85, 32
  %87 = getelementptr inbounds [100 x i32], [100 x i32]* %5, i64 0, i64 %86
  %88 = bitcast i32* %87 to <4 x i32>*
  store <4 x i32> %81, <4 x i32>* %88, align 16, !tbaa !5
  %89 = getelementptr inbounds i32, i32* %87, i64 4
  %90 = bitcast i32* %89 to <4 x i32>*
  store <4 x i32> %84, <4 x i32>* %90, align 16, !tbaa !5
  %91 = add nuw i64 %62, 16
  %92 = add i64 %63, -2
  %93 = icmp eq i64 %92, 0
  br i1 %93, label %94, label %61, !llvm.loop !11

94:                                               ; preds = %61, %51
  %95 = phi i64 [ 0, %51 ], [ %91, %61 ]
  %96 = icmp eq i64 %57, 0
  br i1 %96, label %111, label %97

97:                                               ; preds = %94
  %98 = add i64 %95, %39
  %99 = getelementptr inbounds [100 x i32], [100 x i32]* %1, i64 0, i64 %98
  %100 = bitcast i32* %99 to <4 x i32>*
  %101 = load <4 x i32>, <4 x i32>* %100, align 4, !tbaa !5
  %102 = getelementptr inbounds i32, i32* %99, i64 4
  %103 = bitcast i32* %102 to <4 x i32>*
  %104 = load <4 x i32>, <4 x i32>* %103, align 4, !tbaa !5
  %105 = shl i64 %95, 32
  %106 = ashr exact i64 %105, 32
  %107 = getelementptr inbounds [100 x i32], [100 x i32]* %5, i64 0, i64 %106
  %108 = bitcast i32* %107 to <4 x i32>*
  store <4 x i32> %101, <4 x i32>* %108, align 16, !tbaa !5
  %109 = getelementptr inbounds i32, i32* %107, i64 4
  %110 = bitcast i32* %109 to <4 x i32>*
  store <4 x i32> %104, <4 x i32>* %110, align 16, !tbaa !5
  br label %111

111:                                              ; preds = %94, %97
  %112 = icmp eq i64 %43, %52
  br i1 %112, label %115, label %113

113:                                              ; preds = %45, %38, %111
  %114 = phi i64 [ %39, %45 ], [ %39, %38 ], [ %53, %111 ]
  br label %117

115:                                              ; preds = %117, %111, %35
  %116 = icmp sgt i32 %14, 0
  br i1 %116, label %127, label %173

117:                                              ; preds = %113, %117
  %118 = phi i64 [ %125, %117 ], [ %114, %113 ]
  %119 = getelementptr inbounds [100 x i32], [100 x i32]* %1, i64 0, i64 %118
  %120 = load i32, i32* %119, align 4, !tbaa !5
  %121 = trunc i64 %118 to i32
  %122 = add i32 %36, %121
  %123 = sext i32 %122 to i64
  %124 = getelementptr inbounds [100 x i32], [100 x i32]* %5, i64 0, i64 %123
  store i32 %120, i32* %124, align 4, !tbaa !5
  %125 = add nsw i64 %118, 1
  %126 = icmp slt i64 %125, %40
  br i1 %126, label %117, label %115, !llvm.loop !13

127:                                              ; preds = %115, %168
  %128 = phi i64 [ %169, %168 ], [ 0, %115 ]
  %129 = phi i32 [ %170, %168 ], [ %14, %115 ]
  %130 = add nsw i32 %129, -1
  %131 = zext i32 %130 to i64
  %132 = icmp eq i64 %128, %131
  %133 = getelementptr inbounds [100 x i32], [100 x i32]* %5, i64 0, i64 %128
  %134 = load i32, i32* %133, align 4, !tbaa !5
  %135 = call nonnull align 8 dereferenceable(8) %"class.std::basic_ostream"* @_ZNSolsEi(%"class.std::basic_ostream"* nonnull align 8 dereferenceable(8) @_ZSt4cout, i32 %134)
  br i1 %132, label %136, label %166

136:                                              ; preds = %127
  %137 = bitcast %"class.std::basic_ostream"* %135 to i8**
  %138 = load i8*, i8** %137, align 8, !tbaa !14
  %139 = getelementptr i8, i8* %138, i64 -24
  %140 = bitcast i8* %139 to i64*
  %141 = load i64, i64* %140, align 8
  %142 = bitcast %"class.std::basic_ostream"* %135 to i8*
  %143 = add nsw i64 %141, 240
  %144 = getelementptr inbounds i8, i8* %142, i64 %143
  %145 = bitcast i8* %144 to %"class.std::ctype"**
  %146 = load %"class.std::ctype"*, %"class.std::ctype"** %145, align 8, !tbaa !16
  %147 = icmp eq %"class.std::ctype"* %146, null
  br i1 %147, label %148, label %149

148:                                              ; preds = %136
  call void @_ZSt16__throw_bad_castv() #10
  unreachable

149:                                              ; preds = %136
  %150 = getelementptr inbounds %"class.std::ctype", %"class.std::ctype"* %146, i64 0, i32 8
  %151 = load i8, i8* %150, align 8, !tbaa !20
  %152 = icmp eq i8 %151, 0
  br i1 %152, label %156, label %153

153:                                              ; preds = %149
  %154 = getelementptr inbounds %"class.std::ctype", %"class.std::ctype"* %146, i64 0, i32 9, i64 10
  %155 = load i8, i8* %154, align 1, !tbaa !22
  br label %162

156:                                              ; preds = %149
  call void @_ZNKSt5ctypeIcE13_M_widen_initEv(%"class.std::ctype"* nonnull align 8 dereferenceable(570) %146)
  %157 = bitcast %"class.std::ctype"* %146 to i8 (%"class.std::ctype"*, i8)***
  %158 = load i8 (%"class.std::ctype"*, i8)**, i8 (%"class.std::ctype"*, i8)*** %157, align 8, !tbaa !14
  %159 = getelementptr inbounds i8 (%"class.std::ctype"*, i8)*, i8 (%"class.std::ctype"*, i8)** %158, i64 6
  %160 = load i8 (%"class.std::ctype"*, i8)*, i8 (%"class.std::ctype"*, i8)** %159, align 8
  %161 = call signext i8 %160(%"class.std::ctype"* nonnull align 8 dereferenceable(570) %146, i8 signext 10)
  br label %162

162:                                              ; preds = %153, %156
  %163 = phi i8 [ %155, %153 ], [ %161, %156 ]
  %164 = call nonnull align 8 dereferenceable(8) %"class.std::basic_ostream"* @_ZNSo3putEc(%"class.std::basic_ostream"* nonnull align 8 dereferenceable(8) %135, i8 signext %163)
  %165 = call nonnull align 8 dereferenceable(8) %"class.std::basic_ostream"* @_ZNSo5flushEv(%"class.std::basic_ostream"* nonnull align 8 dereferenceable(8) %164)
  br label %168

166:                                              ; preds = %127
  %167 = call nonnull align 8 dereferenceable(8) %"class.std::basic_ostream"* @_ZSt16__ostream_insertIcSt11char_traitsIcEERSt13basic_ostreamIT_T0_ES6_PKS3_l(%"class.std::basic_ostream"* nonnull align 8 dereferenceable(8) %135, i8* nonnull getelementptr inbounds ([2 x i8], [2 x i8]* @.str, i64 0, i64 0), i64 1)
  br label %168

168:                                              ; preds = %162, %166
  %169 = add nuw nsw i64 %128, 1
  %170 = load i32, i32* %3, align 4, !tbaa !5
  %171 = sext i32 %170 to i64
  %172 = icmp slt i64 %169, %171
  br i1 %172, label %127, label %173, !llvm.loop !23

173:                                              ; preds = %168, %115
  call void @llvm.lifetime.end.p0i8(i64 400, i8* nonnull %8) #9
  call void @llvm.lifetime.end.p0i8(i64 4, i8* nonnull %7) #9
  call void @llvm.lifetime.end.p0i8(i64 4, i8* nonnull %6) #9
  call void @llvm.lifetime.end.p0i8(i64 400, i8* nonnull %2) #9
  ret i32 0
}

; Function Attrs: argmemonly mustprogress nofree nosync nounwind willreturn
declare void @llvm.lifetime.start.p0i8(i64 immarg, i8* nocapture) #4

declare nonnull align 8 dereferenceable(16) %"class.std::basic_istream"* @_ZNSirsERi(%"class.std::basic_istream"* nonnull align 8 dereferenceable(16), i32* nonnull align 4 dereferenceable(4)) local_unnamed_addr #0

declare nonnull align 8 dereferenceable(8) %"class.std::basic_ostream"* @_ZNSolsEi(%"class.std::basic_ostream"* nonnull align 8 dereferenceable(8), i32) local_unnamed_addr #0

; Function Attrs: argmemonly mustprogress nofree nosync nounwind willreturn
declare void @llvm.lifetime.end.p0i8(i64 immarg, i8* nocapture) #4

declare nonnull align 8 dereferenceable(8) %"class.std::basic_ostream"* @_ZNSo3putEc(%"class.std::basic_ostream"* nonnull align 8 dereferenceable(8), i8 signext) local_unnamed_addr #0

declare nonnull align 8 dereferenceable(8) %"class.std::basic_ostream"* @_ZNSo5flushEv(%"class.std::basic_ostream"* nonnull align 8 dereferenceable(8)) local_unnamed_addr #0

; Function Attrs: noreturn
declare void @_ZSt16__throw_bad_castv() local_unnamed_addr #5

declare void @_ZNKSt5ctypeIcE13_M_widen_initEv(%"class.std::ctype"* nonnull align 8 dereferenceable(570)) local_unnamed_addr #0

declare nonnull align 8 dereferenceable(8) %"class.std::basic_ostream"* @_ZSt16__ostream_insertIcSt11char_traitsIcEERSt13basic_ostreamIT_T0_ES6_PKS3_l(%"class.std::basic_ostream"* nonnull align 8 dereferenceable(8), i8*, i64) local_unnamed_addr #0

; Function Attrs: sspstrong uwtable
define internal void @_GLOBAL__sub_I_572.cpp() #6 section ".text.startup" {
  tail call void @_ZNSt8ios_base4InitC1Ev(%"class.std::ios_base::Init"* nonnull align 1 dereferenceable(1) @_ZStL8__ioinit)
  %1 = tail call i32 @__cxa_atexit(void (i8*)* bitcast (void (%"class.std::ios_base::Init"*)* @_ZNSt8ios_base4InitD1Ev to void (i8*)*), i8* getelementptr inbounds (%"class.std::ios_base::Init", %"class.std::ios_base::Init"* @_ZStL8__ioinit, i64 0, i32 0), i8* nonnull @__dso_handle) #9
  ret void
}

; Function Attrs: argmemonly nofree nounwind willreturn
declare void @llvm.memcpy.p0i8.p0i8.i64(i8* noalias nocapture writeonly, i8* noalias nocapture readonly, i64, i1 immarg) #7

; Function Attrs: nofree nosync nounwind readnone speculatable willreturn
declare i64 @llvm.smax.i64(i64, i64) #8


!llvm.module.flags = !{!0, !1, !2, !3}
!llvm.ident = !{!4}

!0 = !{i32 1, !"wchar_size", i32 4}
!1 = !{i32 7, !"PIC Level", i32 2}
!2 = !{i32 7, !"PIE Level", i32 2}
!3 = !{i32 7, !"uwtable", i32 1}
!4 = !{!"clang version 13.0.0"}
!5 = !{!6, !6, i64 0}
!6 = !{!"int", !7, i64 0}
!7 = !{!"omnipotent char", !8, i64 0}
!8 = !{!"Simple C++ TBAA"}
!9 = distinct !{!9, !10}
!10 = !{!"llvm.loop.mustprogress"}
!11 = distinct !{!11, !10, !12}
!12 = !{!"llvm.loop.isvectorized", i32 1}
!13 = distinct !{!13, !10, !12}
!14 = !{!15, !15, i64 0}
!15 = !{!"vtable pointer", !8, i64 0}
!16 = !{!17, !18, i64 240}
!17 = !{!"_ZTSSt9basic_iosIcSt11char_traitsIcEE", !18, i64 216, !7, i64 224, !19, i64 225, !18, i64 232, !18, i64 240, !18, i64 248, !18, i64 256}
!18 = !{!"any pointer", !7, i64 0}
!19 = !{!"bool", !7, i64 0}
!20 = !{!21, !7, i64 56}
!21 = !{!"_ZTSSt5ctypeIcE", !18, i64 16, !19, i64 24, !18, i64 32, !18, i64 40, !18, i64 48, !7, i64 56, !7, i64 57, !7, i64 313, !7, i64 569}
!22 = !{!7, !7, i64 0}
!23 = distinct !{!23, !10}
